target datalayout = "e-m:e-p270:32:32-p271:32:32-p272:64:64-i64:64-i128:128-f80:128-n8:16:32:64-S128"
target triple = "x86_64-pc-linux-gnu"

; Function Attrs: nounwind uwtable
define internal i32 @encode_frame_hdr(ptr noundef %0, i64 noundef %1) #0 {
  %3 = alloca ptr, align 8
  %4 = alloca i64, align 8
  store ptr %0, ptr %3, align 8, !tbaa !21
  store i64 %1, ptr %4, align 8, !tbaa !8
  %5 = load ptr, ptr %3, align 8, !tbaa !21
  %6 = load i64, ptr %4, align 8, !tbaa !8
  %7 = call i32 @WPACKET_quic_write_vlint(ptr noundef %5, i64 noundef %6)
  ret i32 %7
}

; Function Attrs: nounwind uwtable
define i32 @ossl_quic_wire_encode_frame_streams_blocked(ptr noundef %0, i8 noundef signext %1, i64 noundef %2) #0 {
  %4 = alloca i32, align 4
  %5 = alloca ptr, align 8
  %6 = alloca i8, align 1
  %7 = alloca i64, align 8
  store ptr %0, ptr %5, align 8, !tbaa !21
  store i8 %1, ptr %6, align 1, !tbaa !56
  store i64 %2, ptr %7, align 8, !tbaa !8
  %8 = load ptr, ptr %5, align 8, !tbaa !21
  %9 = load i8, ptr %6, align 1, !tbaa !56
  %10 = sext i8 %9 to i32
  %11 = icmp ne i32 %10, 0
  %12 = select i1 %11, i32 23, i32 22
  %13 = sext i32 %12 to i64
  %14 = call i32 @encode_frame_hdr(ptr noundef %8, i64 noundef %13)
  %15 = icmp ne i32 %14, 0
  br i1 %15, label %16, label %21

16:                                               ; preds = %3
  %17 = load ptr, ptr %5, align 8, !tbaa !21
  %18 = load i64, ptr %7, align 8, !tbaa !8
  %19 = call i32 @WPACKET_quic_write_vlint(ptr noundef %17, i64 noundef %18)
  %20 = icmp ne i32 %19, 0
  br i1 %20, label %22, label %21

21:                                               ; preds = %16, %3
  store i32 0, ptr %4, align 4
  br label %23

22:                                               ; preds = %16
  store i32 1, ptr %4, align 4
  br label %23

23:                                               ; preds = %22, %21
  %24 = load i32, ptr %4, align 4
  ret i32 %24
}